; ModuleID = '2/150.c'
source_filename = "2/150.c"
target datalayout = "e-m:e-p270:32:32-p271:32:32-p272:64:64-i64:64-f80:128-n8:16:32:64-S128"
target triple = "x86_64-pc-linux-gnu"

%struct.book = type { i32, [26 x i8] }

@.str = private unnamed_addr constant [3 x i8] c"%d\00", align 1
@.str.1 = private unnamed_addr constant [6 x i8] c"%d %s\00", align 1
@b = common dso_local global [999 x %struct.book] zeroinitializer, align 16
@.str.2 = private unnamed_addr constant [6 x i8] c"%c\0A%d\00", align 1
@.str.3 = private unnamed_addr constant [4 x i8] c"\0A%d\00", align 1

; Function Attrs: noinline nounwind uwtable
define dso_local i32 @main() #0 {
  %1 = alloca i32, align 4
  %2 = alloca i32, align 4
  %3 = alloca i32, align 4
  %4 = alloca i32, align 4
  %5 = alloca [26 x i32], align 16
  %6 = alloca i32, align 4
  %7 = alloca i32, align 4
  %8 = alloca [26 x i8], align 16
  %9 = alloca i32, align 4
  store i32 0, i32* %1, align 4
  %10 = bitcast [26 x i32]* %5 to i8*
  call void @llvm.memset.p0i8.i64(i8* align 16 %10, i8 0, i64 104, i1 false)
  %11 = call i32 (i8*, ...) @__isoc99_scanf(i8* getelementptr inbounds ([3 x i8], [3 x i8]* @.str, i64 0, i64 0), i32* %2)
  store i32 0, i32* %4, align 4
  br label %12

12:                                               ; preds = %56, %0
  %13 = load i32, i32* %4, align 4
  %14 = load i32, i32* %2, align 4
  %15 = icmp slt i32 %13, %14
  br i1 %15, label %16, label %59

16:                                               ; preds = %12
  %17 = load i32, i32* %4, align 4
  %18 = sext i32 %17 to i64
  %19 = getelementptr inbounds [999 x %struct.book], [999 x %struct.book]* @b, i64 0, i64 %18
  %20 = getelementptr inbounds %struct.book, %struct.book* %19, i32 0, i32 0
  %21 = load i32, i32* %4, align 4
  %22 = sext i32 %21 to i64
  %23 = getelementptr inbounds [999 x %struct.book], [999 x %struct.book]* @b, i64 0, i64 %22
  %24 = getelementptr inbounds %struct.book, %struct.book* %23, i32 0, i32 1
  %25 = call i32 (i8*, ...) @__isoc99_scanf(i8* getelementptr inbounds ([6 x i8], [6 x i8]* @.str.1, i64 0, i64 0), i32* %20, [26 x i8]* %24)
  store i32 0, i32* %7, align 4
  br label %26

26:                                               ; preds = %52, %16
  %27 = load i32, i32* %4, align 4
  %28 = sext i32 %27 to i64
  %29 = getelementptr inbounds [999 x %struct.book], [999 x %struct.book]* @b, i64 0, i64 %28
  %30 = getelementptr inbounds %struct.book, %struct.book* %29, i32 0, i32 1
  %31 = load i32, i32* %7, align 4
  %32 = sext i32 %31 to i64
  %33 = getelementptr inbounds [26 x i8], [26 x i8]* %30, i64 0, i64 %32
  %34 = load i8, i8* %33, align 1
  %35 = sext i8 %34 to i32
  %36 = icmp ne i32 %35, 0
  br i1 %36, label %37, label %55

37:                                               ; preds = %26
  %38 = load i32, i32* %4, align 4
  %39 = sext i32 %38 to i64
  %40 = getelementptr inbounds [999 x %struct.book], [999 x %struct.book]* @b, i64 0, i64 %39
  %41 = getelementptr inbounds %struct.book, %struct.book* %40, i32 0, i32 1
  %42 = load i32, i32* %7, align 4
  %43 = sext i32 %42 to i64
  %44 = getelementptr inbounds [26 x i8], [26 x i8]* %41, i64 0, i64 %43
  %45 = load i8, i8* %44, align 1
  %46 = sext i8 %45 to i32
  %47 = sub nsw i32 %46, 65
  %48 = sext i32 %47 to i64
  %49 = getelementptr inbounds [26 x i32], [26 x i32]* %5, i64 0, i64 %48
  %50 = load i32, i32* %49, align 4
  %51 = add nsw i32 %50, 1
  store i32 %51, i32* %49, align 4
  br label %52

52:                                               ; preds = %37
  %53 = load i32, i32* %7, align 4
  %54 = add nsw i32 %53, 1
  store i32 %54, i32* %7, align 4
  br label %26

55:                                               ; preds = %26
  br label %56

56:                                               ; preds = %55
  %57 = load i32, i32* %4, align 4
  %58 = add nsw i32 %57, 1
  store i32 %58, i32* %4, align 4
  br label %12

59:                                               ; preds = %12
  store i32 0, i32* %9, align 4
  store i32 0, i32* %4, align 4
  br label %60

60:                                               ; preds = %77, %59
  %61 = load i32, i32* %4, align 4
  %62 = icmp slt i32 %61, 26
  br i1 %62, label %63, label %80

63:                                               ; preds = %60
  %64 = load i32, i32* %9, align 4
  %65 = load i32, i32* %4, align 4
  %66 = sext i32 %65 to i64
  %67 = getelementptr inbounds [26 x i32], [26 x i32]* %5, i64 0, i64 %66
  %68 = load i32, i32* %67, align 4
  %69 = icmp slt i32 %64, %68
  br i1 %69, label %70, label %76

70:                                               ; preds = %63
  %71 = load i32, i32* %4, align 4
  %72 = sext i32 %71 to i64
  %73 = getelementptr inbounds [26 x i32], [26 x i32]* %5, i64 0, i64 %72
  %74 = load i32, i32* %73, align 4
  store i32 %74, i32* %9, align 4
  %75 = load i32, i32* %4, align 4
  store i32 %75, i32* %6, align 4
  br label %76

76:                                               ; preds = %70, %63
  br label %77

77:                                               ; preds = %76
  %78 = load i32, i32* %4, align 4
  %79 = add nsw i32 %78, 1
  store i32 %79, i32* %4, align 4
  br label %60

80:                                               ; preds = %60
  %81 = load i32, i32* %6, align 4
  %82 = add nsw i32 %81, 65
  %83 = load i32, i32* %9, align 4
  %84 = call i32 (i8*, ...) @printf(i8* getelementptr inbounds ([6 x i8], [6 x i8]* @.str.2, i64 0, i64 0), i32 %82, i32 %83)
  store i32 0, i32* %4, align 4
  br label %85

85:                                               ; preds = %127, %80
  %86 = load i32, i32* %4, align 4
  %87 = load i32, i32* %2, align 4
  %88 = icmp slt i32 %86, %87
  br i1 %88, label %89, label %130

89:                                               ; preds = %85
  store i32 0, i32* %7, align 4
  br label %90

90:                                               ; preds = %123, %89
  %91 = load i32, i32* %4, align 4
  %92 = sext i32 %91 to i64
  %93 = getelementptr inbounds [999 x %struct.book], [999 x %struct.book]* @b, i64 0, i64 %92
  %94 = getelementptr inbounds %struct.book, %struct.book* %93, i32 0, i32 1
  %95 = load i32, i32* %7, align 4
  %96 = sext i32 %95 to i64
  %97 = getelementptr inbounds [26 x i8], [26 x i8]* %94, i64 0, i64 %96
  %98 = load i8, i8* %97, align 1
  %99 = sext i8 %98 to i32
  %100 = icmp ne i32 %99, 0
  br i1 %100, label %101, label %126

101:                                              ; preds = %90
  %102 = load i32, i32* %4, align 4
  %103 = sext i32 %102 to i64
  %104 = getelementptr inbounds [999 x %struct.book], [999 x %struct.book]* @b, i64 0, i64 %103
  %105 = getelementptr inbounds %struct.book, %struct.book* %104, i32 0, i32 1
  %106 = load i32, i32* %7, align 4
  %107 = sext i32 %106 to i64
  %108 = getelementptr inbounds [26 x i8], [26 x i8]* %105, i64 0, i64 %107
  %109 = load i8, i8* %108, align 1
  %110 = sext i8 %109 to i32
  %111 = load i32, i32* %6, align 4
  %112 = add nsw i32 %111, 65
  %113 = icmp eq i32 %110, %112
  br i1 %113, label %114, label %121

114:                                              ; preds = %101
  %115 = load i32, i32* %4, align 4
  %116 = sext i32 %115 to i64
  %117 = getelementptr inbounds [999 x %struct.book], [999 x %struct.book]* @b, i64 0, i64 %116
  %118 = getelementptr inbounds %struct.book, %struct.book* %117, i32 0, i32 0
  %119 = load i32, i32* %118, align 16
  %120 = call i32 (i8*, ...) @printf(i8* getelementptr inbounds ([4 x i8], [4 x i8]* @.str.3, i64 0, i64 0), i32 %119)
  br label %122

121:                                              ; preds = %101
  br label %123

122:                                              ; preds = %114
  br label %123

123:                                              ; preds = %122, %121
  %124 = load i32, i32* %7, align 4
  %125 = add nsw i32 %124, 1
  store i32 %125, i32* %7, align 4
  br label %90

126:                                              ; preds = %90
  br label %127

127:                                              ; preds = %126
  %128 = load i32, i32* %4, align 4
  %129 = add nsw i32 %128, 1
  store i32 %129, i32* %4, align 4
  br label %85

130:                                              ; preds = %85
  %131 = load i32, i32* %1, align 4
  ret i32 %131
}

; Function Attrs: argmemonly nounwind willreturn
declare void @llvm.memset.p0i8.i64(i8* nocapture writeonly, i8, i64, i1 immarg) #1

declare dso_local i32 @__isoc99_scanf(i8*, ...) #2

declare dso_local i32 @printf(i8*, ...) #2


!llvm.module.flags = !{!0}
!llvm.ident = !{!1}

!0 = !{i32 1, !"wchar_size", i32 4}
!1 = !{!"clang version 10.0.0-4ubuntu1 "}
